target datalayout = "e-m:e-p270:32:32-p271:32:32-p272:64:64-i64:64-i128:128-f80:128-n8:16:32:64-S128"
target triple = "x86_64-pc-linux-gnu"

%union.EX_STYPE = type { ptr }
%struct.Exnode_s = type { i64, i64, i8, %union.anon, %union.Exdata_u, i32 }
%union.anon = type { ptr }
%union.Exdata_u = type { %struct.anon.2 }
%struct.anon.2 = type { ptr, ptr, ptr, ptr }
%struct.Expr_s = type { ptr, ptr, [10 x ptr], ptr, ptr, ptr, ptr, ptr, ptr, %struct.agxbuf, %union.EX_STYPE, %struct.Exid_s, [512 x i8], ptr, i32, i32, i32, i64, i64, i32 }
%struct.agxbuf = type { %union.anon.10 }
%union.anon.10 = type { %struct.anon.11 }
%struct.anon.11 = type { ptr, i64, i64, [7 x i8], i8 }
%struct.Exid_s = type { %struct.dtlink_s_, i64, i64, i64, i64, ptr, ptr, [32 x i8] }
%struct.dtlink_s_ = type { ptr, %union.anon.12 }
%union.anon.12 = type { ptr }
%struct.Exdisc_s = type { i64, i64, ptr, ptr, ptr, ptr, ptr, ptr, ptr, ptr, ptr, ptr, ptr, ptr, ptr, ptr, ptr }
%struct.anon.0 = type { ptr, ptr }
%struct.anon = type { %union.EX_STYPE, ptr }

@.str.51 = private unnamed_addr constant [41 x i8] c"%s: no string representation of %s value\00", align 1

; Function Attrs: nounwind uwtable
define internal void @xPrint(ptr noundef %0, ptr noundef %1, ptr %2, ptr noundef %3) #0 {
  %5 = alloca %union.EX_STYPE, align 8
  %6 = alloca ptr, align 8
  %7 = alloca ptr, align 8
  %8 = alloca ptr, align 8
  %9 = getelementptr inbounds nuw %union.EX_STYPE, ptr %5, i32 0, i32 0
  store ptr %2, ptr %9, align 8
  store ptr %0, ptr %6, align 8, !tbaa !3
  store ptr %1, ptr %7, align 8, !tbaa !8
  store ptr %3, ptr %8, align 8, !tbaa !8
  %10 = load ptr, ptr %8, align 8, !tbaa !8
  %11 = load ptr, ptr %7, align 8, !tbaa !8
  %12 = getelementptr inbounds nuw %struct.Exnode_s, ptr %11, i32 0, i32 4
  %13 = getelementptr inbounds nuw %struct.anon.0, ptr %12, i32 0, i32 0
  %14 = load ptr, ptr %13, align 8, !tbaa !11
  call void @llvm.memcpy.p0.p0.i64(ptr align 8 %10, ptr align 8 %14, i64 72, i1 false), !tbaa.struct !76
  %15 = load ptr, ptr %8, align 8, !tbaa !8
  %16 = getelementptr inbounds nuw %struct.Exnode_s, ptr %15, i32 0, i32 4
  %17 = getelementptr inbounds nuw %struct.anon, ptr %16, i32 0, i32 0
  call void @llvm.memcpy.p0.p0.i64(ptr align 8 %17, ptr align 8 %5, i64 8, i1 false), !tbaa.struct !34
  %18 = load ptr, ptr %6, align 8, !tbaa !3
  %19 = getelementptr inbounds nuw %struct.Expr_s, ptr %18, i32 0, i32 6
  %20 = load ptr, ptr %19, align 8, !tbaa !17
  %21 = getelementptr inbounds nuw %struct.Exdisc_s, ptr %20, i32 0, i32 8
  %22 = load ptr, ptr %21, align 8, !tbaa !120
  %23 = load ptr, ptr %6, align 8, !tbaa !3
  %24 = load ptr, ptr %8, align 8, !tbaa !8
  %25 = call i32 %22(ptr noundef %23, ptr noundef %24, i32 noundef 0)
  %26 = icmp ne i32 %25, 0
  br i1 %26, label %27, label %45

27:                                               ; preds = %4
  %28 = load ptr, ptr %7, align 8, !tbaa !8
  %29 = getelementptr inbounds nuw %struct.Exnode_s, ptr %28, i32 0, i32 4
  %30 = getelementptr inbounds nuw %struct.anon.0, ptr %29, i32 0, i32 0
  %31 = load ptr, ptr %30, align 8, !tbaa !11
  %32 = getelementptr inbounds nuw %struct.Exnode_s, ptr %31, i32 0, i32 4
  %33 = getelementptr inbounds nuw %struct.anon.2, ptr %32, i32 0, i32 0
  %34 = load ptr, ptr %33, align 8, !tbaa !11
  %35 = getelementptr inbounds nuw %struct.Exid_s, ptr %34, i32 0, i32 7
  %36 = getelementptr inbounds [32 x i8], ptr %35, i64 0, i64 0
  %37 = load ptr, ptr %6, align 8, !tbaa !3
  %38 = load ptr, ptr %7, align 8, !tbaa !8
  %39 = getelementptr inbounds nuw %struct.Exnode_s, ptr %38, i32 0, i32 4
  %40 = getelementptr inbounds nuw %struct.anon.0, ptr %39, i32 0, i32 0
  %41 = load ptr, ptr %40, align 8, !tbaa !11
  %42 = getelementptr inbounds nuw %struct.Exnode_s, ptr %41, i32 0, i32 0
  %43 = load i64, ptr %42, align 8, !tbaa !12
  %44 = call ptr @extypename(ptr noundef %37, i64 noundef %43)
  call void (ptr, ...) @exerror(ptr noundef @.str.51, ptr noundef %36, ptr noundef %44)
  br label %45

45:                                               ; preds = %27, %4
  %46 = load ptr, ptr %8, align 8, !tbaa !8
  %47 = getelementptr inbounds nuw %struct.Exnode_s, ptr %46, i32 0, i32 0
  store i64 263, ptr %47, align 8, !tbaa !12
  ret void
}