; Function Attrs: nounwind uwtable
define internal fastcc void @xPrint(ptr noundef %0, ptr noundef nonnull readonly captures(none) %1, ptr %2, ptr noundef nonnull initializes((0, 72)) %3) unnamed_addr #0 {
  %5 = getelementptr inbounds nuw i8, ptr %1, i64 32
  %6 = load ptr, ptr %5, align 8, !tbaa !3
  tail call void @llvm.memcpy.p0.p0.i64(ptr noundef nonnull align 8 dereferenceable(72) %3, ptr noundef nonnull align 8 dereferenceable(72) %6, i64 72, i1 false), !tbaa.struct !69
  %7 = getelementptr inbounds nuw i8, ptr %3, i64 32
  store ptr %2, ptr %7, align 8, !tbaa !3
  %8 = getelementptr inbounds nuw i8, ptr %0, i64 120
  %9 = load ptr, ptr %8, align 8, !tbaa !11
  %10 = getelementptr inbounds nuw i8, ptr %9, i64 64
  %11 = load ptr, ptr %10, align 8, !tbaa !110
  %12 = tail call i32 %11(ptr noundef %0, ptr noundef nonnull %3, i32 noundef 0) #25
  %.not = icmp eq i32 %12, 0
  br i1 %.not, label %20, label %13

13:                                               ; preds = %4
  %14 = load ptr, ptr %5, align 8, !tbaa !3
  %15 = getelementptr inbounds nuw i8, ptr %14, i64 32
  %16 = load ptr, ptr %15, align 8, !tbaa !3
  %17 = getelementptr inbounds nuw i8, ptr %16, i64 64
  %18 = load i64, ptr %14, align 8, !tbaa !6
  %19 = tail call ptr @extypename(ptr noundef nonnull %0, i64 noundef %18) #25
  tail call void (ptr, ...) @exerror(ptr noundef nonnull @.str.51, ptr noundef nonnull %17, ptr noundef %19) #25
  br label %20

20:                                               ; preds = %13, %4
  store i64 263, ptr %3, align 8, !tbaa !6
  ret void
}